target datalayout = "e-m:e-p270:32:32-p271:32:32-p272:64:64-i64:64-i128:128-f80:128-n8:16:32:64-S128"
target triple = "x86_64-pc-linux-gnu"

%"class.gmx::TrajectoryElement" = type { %"class.gmx::ISimulatorElement", %"class.gmx::ILoggingSignallerClient", %"class.gmx::ITrajectorySignallerClient", i64, i64, i64, ptr, %"class.std::vector", %"class.std::vector.2", %"class.std::vector.2" }
%"class.gmx::ISimulatorElement" = type { ptr }
%"class.gmx::ILoggingSignallerClient" = type { ptr }
%"class.gmx::ITrajectorySignallerClient" = type { ptr }
%"class.std::vector" = type { %"struct.std::_Vector_base" }
%"struct.std::_Vector_base" = type { %"struct.std::_Vector_base<gmx::ITrajectoryWriterClient *, std::allocator<gmx::ITrajectoryWriterClient *>>::_Vector_impl" }
%"struct.std::_Vector_base<gmx::ITrajectoryWriterClient *, std::allocator<gmx::ITrajectoryWriterClient *>>::_Vector_impl" = type { %"struct.std::_Vector_base<gmx::ITrajectoryWriterClient *, std::allocator<gmx::ITrajectoryWriterClient *>>::_Vector_impl_data" }
%"struct.std::_Vector_base<gmx::ITrajectoryWriterClient *, std::allocator<gmx::ITrajectoryWriterClient *>>::_Vector_impl_data" = type { ptr, ptr, ptr }
%"class.std::vector.2" = type { %"struct.std::_Vector_base.3" }
%"struct.std::_Vector_base.3" = type { %"struct.std::_Vector_base<std::function<void (gmx_mdoutf *, long, double, bool, bool)>, std::allocator<std::function<void (gmx_mdoutf *, long, double, bool, bool)>>>::_Vector_impl" }
%"struct.std::_Vector_base<std::function<void (gmx_mdoutf *, long, double, bool, bool)>, std::allocator<std::function<void (gmx_mdoutf *, long, double, bool, bool)>>>::_Vector_impl" = type { %"struct.std::_Vector_base<std::function<void (gmx_mdoutf *, long, double, bool, bool)>, std::allocator<std::function<void (gmx_mdoutf *, long, double, bool, bool)>>>::_Vector_impl_data" }
%"struct.std::_Vector_base<std::function<void (gmx_mdoutf *, long, double, bool, bool)>, std::allocator<std::function<void (gmx_mdoutf *, long, double, bool, bool)>>>::_Vector_impl_data" = type { ptr, ptr, ptr }
%"class.__gnu_cxx::__normal_iterator" = type { ptr }

; Function Attrs: mustprogress nounwind uwtable
define linkonce_odr noundef nonnull align 8 dereferenceable(8) ptr @_ZNK9__gnu_cxx17__normal_iteratorIPPN3gmx23ITrajectoryWriterClientESt6vectorIS3_SaIS3_EEE4baseEv(ptr noundef nonnull align 8 dereferenceable(8) %0) #2 comdat align 2 {
  %2 = alloca ptr, align 8
  store ptr %0, ptr %2, align 8, !tbaa !119
  %3 = load ptr, ptr %2, align 8
  %4 = getelementptr inbounds nuw %"class.__gnu_cxx::__normal_iterator", ptr %3, i32 0, i32 0
  ret ptr %4
}

; Function Attrs: mustprogress nounwind uwtable
define linkonce_odr void @_ZN9__gnu_cxx17__normal_iteratorIPPN3gmx23ITrajectoryWriterClientESt6vectorIS3_SaIS3_EEEC2ERKS4_(ptr noundef nonnull align 8 dereferenceable(8) %0, ptr noundef nonnull align 8 dereferenceable(8) %1) unnamed_addr #2 comdat align 2 {
  %3 = alloca ptr, align 8
  %4 = alloca ptr, align 8
  store ptr %0, ptr %3, align 8, !tbaa !119
  store ptr %1, ptr %4, align 8, !tbaa !128
  %5 = load ptr, ptr %3, align 8
  %6 = getelementptr inbounds nuw %"class.__gnu_cxx::__normal_iterator", ptr %5, i32 0, i32 0
  %7 = load ptr, ptr %4, align 8, !tbaa !128
  %8 = load ptr, ptr %7, align 8, !tbaa !47
  store ptr %8, ptr %6, align 8, !tbaa !121
  ret void
}

; Function Attrs: mustprogress nounwind uwtable
define linkonce_odr noundef nonnull align 8 dereferenceable(8) ptr @_ZN9__gnu_cxx17__normal_iteratorIPPN3gmx23ITrajectoryWriterClientESt6vectorIS3_SaIS3_EEEppEv(ptr noundef nonnull align 8 dereferenceable(8) %0) #2 comdat align 2 {
  %2 = alloca ptr, align 8
  store ptr %0, ptr %2, align 8, !tbaa !119
  %3 = load ptr, ptr %2, align 8
  %4 = getelementptr inbounds nuw %"class.__gnu_cxx::__normal_iterator", ptr %3, i32 0, i32 0
  %5 = load ptr, ptr %4, align 8, !tbaa !121
  %6 = getelementptr inbounds nuw ptr, ptr %5, i32 1
  store ptr %6, ptr %4, align 8, !tbaa !121
  ret ptr %3
}

; Function Attrs: mustprogress nounwind uwtable
define linkonce_odr noundef nonnull align 8 dereferenceable(8) ptr @_ZNK9__gnu_cxx17__normal_iteratorIPPN3gmx23ITrajectoryWriterClientESt6vectorIS3_SaIS3_EEEdeEv(ptr noundef nonnull align 8 dereferenceable(8) %0) #2 comdat align 2 {
  %2 = alloca ptr, align 8
  store ptr %0, ptr %2, align 8, !tbaa !119
  %3 = load ptr, ptr %2, align 8
  %4 = getelementptr inbounds nuw %"class.__gnu_cxx::__normal_iterator", ptr %3, i32 0, i32 0
  %5 = load ptr, ptr %4, align 8, !tbaa !121
  ret ptr %5
}

; Function Attrs: inlinehint mustprogress nounwind uwtable
define linkonce_odr noundef zeroext i1 @_ZN9__gnu_cxxneIPPN3gmx23ITrajectoryWriterClientESt6vectorIS3_SaIS3_EEEEbRKNS_17__normal_iteratorIT_T0_EESD_(ptr noundef nonnull align 8 dereferenceable(8) %0, ptr noundef nonnull align 8 dereferenceable(8) %1) #1 comdat {
  %3 = alloca ptr, align 8
  %4 = alloca ptr, align 8
  store ptr %0, ptr %3, align 8, !tbaa !119
  store ptr %1, ptr %4, align 8, !tbaa !119
  %5 = load ptr, ptr %3, align 8, !tbaa !119
  %6 = call noundef nonnull align 8 dereferenceable(8) ptr @_ZNK9__gnu_cxx17__normal_iteratorIPPN3gmx23ITrajectoryWriterClientESt6vectorIS3_SaIS3_EEE4baseEv(ptr noundef nonnull align 8 dereferenceable(8) %5) #20
  %7 = load ptr, ptr %6, align 8, !tbaa !47
  %8 = load ptr, ptr %4, align 8, !tbaa !119
  %9 = call noundef nonnull align 8 dereferenceable(8) ptr @_ZNK9__gnu_cxx17__normal_iteratorIPPN3gmx23ITrajectoryWriterClientESt6vectorIS3_SaIS3_EEE4baseEv(ptr noundef nonnull align 8 dereferenceable(8) %8) #20
  %10 = load ptr, ptr %9, align 8, !tbaa !47
  %11 = icmp ne ptr %7, %10
  ret i1 %11
}

; Function Attrs: mustprogress nounwind uwtable
define linkonce_odr ptr @_ZNSt6vectorIPN3gmx23ITrajectoryWriterClientESaIS2_EE3endEv(ptr noundef nonnull align 8 dereferenceable(24) %0) #2 comdat align 2 {
  %2 = alloca %"class.__gnu_cxx::__normal_iterator", align 8
  %3 = alloca ptr, align 8
  store ptr %0, ptr %3, align 8, !tbaa !45
  %4 = load ptr, ptr %3, align 8
  %5 = getelementptr inbounds nuw %"struct.std::_Vector_base", ptr %4, i32 0, i32 0
  %6 = getelementptr inbounds nuw %"struct.std::_Vector_base<gmx::ITrajectoryWriterClient *, std::allocator<gmx::ITrajectoryWriterClient *>>::_Vector_impl_data", ptr %5, i32 0, i32 1
  call void @_ZN9__gnu_cxx17__normal_iteratorIPPN3gmx23ITrajectoryWriterClientESt6vectorIS3_SaIS3_EEEC2ERKS4_(ptr noundef nonnull align 8 dereferenceable(8) %2, ptr noundef nonnull align 8 dereferenceable(8) %6) #20
  %7 = getelementptr inbounds nuw %"class.__gnu_cxx::__normal_iterator", ptr %2, i32 0, i32 0
  %8 = load ptr, ptr %7, align 8
  ret ptr %8
}

; Function Attrs: mustprogress nounwind uwtable
define linkonce_odr ptr @_ZNSt6vectorIPN3gmx23ITrajectoryWriterClientESaIS2_EE5beginEv(ptr noundef nonnull align 8 dereferenceable(24) %0) #2 comdat align 2 {
  %2 = alloca %"class.__gnu_cxx::__normal_iterator", align 8
  %3 = alloca ptr, align 8
  store ptr %0, ptr %3, align 8, !tbaa !45
  %4 = load ptr, ptr %3, align 8
  %5 = getelementptr inbounds nuw %"struct.std::_Vector_base", ptr %4, i32 0, i32 0
  %6 = getelementptr inbounds nuw %"struct.std::_Vector_base<gmx::ITrajectoryWriterClient *, std::allocator<gmx::ITrajectoryWriterClient *>>::_Vector_impl_data", ptr %5, i32 0, i32 0
  call void @_ZN9__gnu_cxx17__normal_iteratorIPPN3gmx23ITrajectoryWriterClientESt6vectorIS3_SaIS3_EEEC2ERKS4_(ptr noundef nonnull align 8 dereferenceable(8) %2, ptr noundef nonnull align 8 dereferenceable(8) %6) #20
  %7 = getelementptr inbounds nuw %"class.__gnu_cxx::__normal_iterator", ptr %2, i32 0, i32 0
  %8 = load ptr, ptr %7, align 8
  ret ptr %8
}

; Function Attrs: mustprogress uwtable
define void @_ZN3gmx17TrajectoryElement15elementTeardownEv(ptr noundef nonnull align 8 dereferenceable(128) %0) unnamed_addr #0 align 2 {
  %2 = alloca ptr, align 8
  %3 = alloca ptr, align 8
  %4 = alloca %"class.__gnu_cxx::__normal_iterator", align 8
  %5 = alloca %"class.__gnu_cxx::__normal_iterator", align 8
  %6 = alloca ptr, align 8
  store ptr %0, ptr %2, align 8, !tbaa !4
  %7 = load ptr, ptr %2, align 8
  call void @llvm.lifetime.start.p0(i64 8, ptr %3) #20
  %8 = getelementptr inbounds nuw %"class.gmx::TrajectoryElement", ptr %7, i32 0, i32 7
  store ptr %8, ptr %3, align 8, !tbaa !45
  call void @llvm.lifetime.start.p0(i64 8, ptr %4) #20
  %9 = load ptr, ptr %3, align 8, !tbaa !45
  %10 = call ptr @_ZNSt6vectorIPN3gmx23ITrajectoryWriterClientESaIS2_EE5beginEv(ptr noundef nonnull align 8 dereferenceable(24) %9) #20
  %11 = getelementptr inbounds nuw %"class.__gnu_cxx::__normal_iterator", ptr %4, i32 0, i32 0
  store ptr %10, ptr %11, align 8
  call void @llvm.lifetime.start.p0(i64 8, ptr %5) #20
  %12 = load ptr, ptr %3, align 8, !tbaa !45
  %13 = call ptr @_ZNSt6vectorIPN3gmx23ITrajectoryWriterClientESaIS2_EE3endEv(ptr noundef nonnull align 8 dereferenceable(24) %12) #20
  %14 = getelementptr inbounds nuw %"class.__gnu_cxx::__normal_iterator", ptr %5, i32 0, i32 0
  store ptr %13, ptr %14, align 8
  br label %15

15:                                               ; preds = %27, %1
  %16 = call noundef zeroext i1 @_ZN9__gnu_cxxneIPPN3gmx23ITrajectoryWriterClientESt6vectorIS3_SaIS3_EEEEbRKNS_17__normal_iteratorIT_T0_EESD_(ptr noundef nonnull align 8 dereferenceable(8) %4, ptr noundef nonnull align 8 dereferenceable(8) %5) #20
  br i1 %16, label %18, label %17

17:                                               ; preds = %15
  call void @llvm.lifetime.end.p0(i64 8, ptr %5) #20
  call void @llvm.lifetime.end.p0(i64 8, ptr %4) #20
  call void @llvm.lifetime.end.p0(i64 8, ptr %3) #20
  br label %29

18:                                               ; preds = %15
  call void @llvm.lifetime.start.p0(i64 8, ptr %6) #20
  %19 = call noundef nonnull align 8 dereferenceable(8) ptr @_ZNK9__gnu_cxx17__normal_iteratorIPPN3gmx23ITrajectoryWriterClientESt6vectorIS3_SaIS3_EEEdeEv(ptr noundef nonnull align 8 dereferenceable(8) %4) #20
  store ptr %19, ptr %6, align 8, !tbaa !47
  %20 = load ptr, ptr %6, align 8, !tbaa !47
  %21 = load ptr, ptr %20, align 8, !tbaa !48
  %22 = getelementptr inbounds nuw %"class.gmx::TrajectoryElement", ptr %7, i32 0, i32 6
  %23 = load ptr, ptr %22, align 8, !tbaa !52
  %24 = load ptr, ptr %21, align 8, !tbaa !50
  %25 = getelementptr inbounds ptr, ptr %24, i64 3
  %26 = load ptr, ptr %25, align 8
  call void %26(ptr noundef nonnull align 8 dereferenceable(8) %21, ptr noundef %23)
  call void @llvm.lifetime.end.p0(i64 8, ptr %6) #20
  br label %27

27:                                               ; preds = %18
  %28 = call noundef nonnull align 8 dereferenceable(8) ptr @_ZN9__gnu_cxx17__normal_iteratorIPPN3gmx23ITrajectoryWriterClientESt6vectorIS3_SaIS3_EEEppEv(ptr noundef nonnull align 8 dereferenceable(8) %4) #20
  br label %15

29:                                               ; preds = %17
  %30 = getelementptr inbounds nuw %"class.gmx::TrajectoryElement", ptr %7, i32 0, i32 6
  %31 = load ptr, ptr %30, align 8, !tbaa !52
  call void @_Z16mdoutf_tng_closeP10gmx_mdoutf(ptr noundef %31)
  %32 = getelementptr inbounds nuw %"class.gmx::TrajectoryElement", ptr %7, i32 0, i32 6
  %33 = load ptr, ptr %32, align 8, !tbaa !52
  call void @_Z11done_mdoutfP10gmx_mdoutf(ptr noundef %33)
  ret void
}