; Function Attrs: mustprogress uwtable
define void @_ZN3gmx17TrajectoryElement15elementTeardownEv(ptr noundef nonnull readonly align 8 captures(none) dereferenceable(128) %0) unnamed_addr #0 align 2 {
  %2 = getelementptr inbounds nuw i8, ptr %0, i64 56
  %3 = load ptr, ptr %2, align 8, !tbaa !41
  %4 = getelementptr inbounds nuw i8, ptr %0, i64 64
  %5 = load ptr, ptr %4, align 8, !tbaa !41
  %.not7 = icmp eq ptr %3, %5
  br i1 %.not7, label %._crit_edge, label %.lr.ph

.lr.ph:                                           ; preds = %1
  %6 = getelementptr inbounds nuw i8, ptr %0, i64 48
  br label %10

._crit_edge:                                      ; preds = %10, %1
  %7 = getelementptr inbounds nuw i8, ptr %0, i64 48
  %8 = load ptr, ptr %7, align 8, !tbaa !56
  tail call void @_Z16mdoutf_tng_closeP10gmx_mdoutf(ptr noundef %8)
  %9 = load ptr, ptr %7, align 8, !tbaa !56
  tail call void @_Z11done_mdoutfP10gmx_mdoutf(ptr noundef %9)
  ret void

10:                                               ; preds = %.lr.ph, %10
  %.sroa.04.08 = phi ptr [ %3, %.lr.ph ], [ %16, %10 ]
  %11 = load ptr, ptr %.sroa.04.08, align 8, !tbaa !42
  %12 = load ptr, ptr %6, align 8, !tbaa !56
  %13 = load ptr, ptr %11, align 8, !tbaa !44
  %14 = getelementptr inbounds nuw i8, ptr %13, i64 24
  %15 = load ptr, ptr %14, align 8
  tail call void %15(ptr noundef nonnull align 8 dereferenceable(8) %11, ptr noundef %12)
  %16 = getelementptr inbounds nuw i8, ptr %.sroa.04.08, i64 8
  %.not = icmp eq ptr %16, %5
  br i1 %.not, label %._crit_edge, label %10
}